target datalayout = "e-m:e-p270:32:32-p271:32:32-p272:64:64-i64:64-i128:128-f80:128-n8:16:32:64-S128"
target triple = "x86_64-pc-linux-gnu"

%struct.H5D_earray_filt_elmt_t = type { i64, i32, i32 }
%struct.H5O_layout_chunk_t = type { i32, i8, i32, [33 x i32], i32, i32, i64, i64, [33 x i64], [33 x i64], [33 x i64], [33 x i64], %union.anon.0 }
%union.anon.0 = type { %struct.H5O_layout_chunk_earray_t }
%struct.H5O_layout_chunk_earray_t = type { %struct.anon.1, i32, [33 x i32], [33 x i64], [33 x i64] }
%struct.anon.1 = type { i8, i8, i8, i8, i8 }
%struct.H5D_chunk_common_ud_t = type { ptr, ptr, ptr }
%struct.H5D_earray_it_ud_t = type { %struct.H5D_chunk_common_ud_t, %struct.H5D_chunk_rec_t, i8, ptr, ptr }
%struct.H5D_chunk_rec_t = type { [33 x i64], i32, i32, i64 }

@H5D_init_g = external global i8, align 1
@H5_libterm_g = external global i8, align 1
@.str.2 = private unnamed_addr constant [103 x i8] c"generated/home/dtcxzyw/WorkSpace/Projects/compilers/llvm-opt-benchmark/bench/hdf5/hdf5/src/H5Dearray.c\00", align 1
@H5E_DATASET_g = external global i64, align 8
@__func__.H5D__earray_idx_iterate_cb = private unnamed_addr constant [27 x i8] c"H5D__earray_idx_iterate_cb\00", align 1
@H5E_CALLBACK_g = external global i64, align 8
@.str.36 = private unnamed_addr constant [43 x i8] c"failure in generic chunk iterator callback\00", align 1

; Function Attrs: nounwind uwtable
define internal i32 @H5D__earray_idx_iterate_cb(i64 noundef %0, ptr noundef %1, ptr noundef %2) #0 {
  %4 = alloca i64, align 8
  %5 = alloca ptr, align 8
  %6 = alloca ptr, align 8
  %7 = alloca ptr, align 8
  %8 = alloca i32, align 4
  %9 = alloca i32, align 4
  %10 = alloca i32, align 4
  %11 = alloca ptr, align 8
  store i64 %0, ptr %4, align 8, !tbaa !10
  store ptr %1, ptr %5, align 8, !tbaa !80
  store ptr %2, ptr %6, align 8, !tbaa !80
  call void @llvm.lifetime.start.p0(i64 8, ptr %7) #8
  %12 = load ptr, ptr %6, align 8, !tbaa !80
  store ptr %12, ptr %7, align 8, !tbaa !130
  call void @llvm.lifetime.start.p0(i64 4, ptr %8) #8
  call void @llvm.lifetime.start.p0(i64 4, ptr %9) #8
  call void @llvm.lifetime.start.p0(i64 4, ptr %10) #8
  store i32 0, ptr %10, align 4, !tbaa !12
  %13 = load i8, ptr @H5D_init_g, align 1, !tbaa !14, !range !16, !noundef !17
  %14 = trunc i8 %13 to i1
  br i1 %14, label %19, label %15

15:                                               ; preds = %3
  %16 = load i8, ptr @H5_libterm_g, align 1, !tbaa !14, !range !16, !noundef !17
  %17 = trunc i8 %16 to i1
  %18 = xor i1 %17, true
  br label %19

19:                                               ; preds = %15, %3
  %20 = phi i1 [ true, %3 ], [ %18, %15 ]
  %21 = xor i1 %20, true
  %22 = xor i1 %21, true
  %23 = zext i1 %22 to i32
  %24 = sext i32 %23 to i64
  %25 = call i64 @llvm.expect.i64(i64 %24, i64 1)
  %26 = icmp ne i64 %25, 0
  br i1 %26, label %27, label %134

27:                                               ; preds = %19
  %28 = load ptr, ptr %7, align 8, !tbaa !130
  %29 = getelementptr inbounds nuw %struct.H5D_earray_it_ud_t, ptr %28, i32 0, i32 2
  %30 = load i8, ptr %29, align 8, !tbaa !89, !range !16, !noundef !17
  %31 = trunc i8 %30 to i1
  br i1 %31, label %32, label %52

32:                                               ; preds = %27
  call void @llvm.lifetime.start.p0(i64 8, ptr %11) #8
  %33 = load ptr, ptr %5, align 8, !tbaa !80
  store ptr %33, ptr %11, align 8, !tbaa !120
  %34 = load ptr, ptr %11, align 8, !tbaa !120
  %35 = getelementptr inbounds nuw %struct.H5D_earray_filt_elmt_t, ptr %34, i32 0, i32 0
  %36 = load i64, ptr %35, align 8, !tbaa !66
  %37 = load ptr, ptr %7, align 8, !tbaa !130
  %38 = getelementptr inbounds nuw %struct.H5D_earray_it_ud_t, ptr %37, i32 0, i32 1
  %39 = getelementptr inbounds nuw %struct.H5D_chunk_rec_t, ptr %38, i32 0, i32 3
  store i64 %36, ptr %39, align 8, !tbaa !132
  %40 = load ptr, ptr %11, align 8, !tbaa !120
  %41 = getelementptr inbounds nuw %struct.H5D_earray_filt_elmt_t, ptr %40, i32 0, i32 1
  %42 = load i32, ptr %41, align 8, !tbaa !69
  %43 = load ptr, ptr %7, align 8, !tbaa !130
  %44 = getelementptr inbounds nuw %struct.H5D_earray_it_ud_t, ptr %43, i32 0, i32 1
  %45 = getelementptr inbounds nuw %struct.H5D_chunk_rec_t, ptr %44, i32 0, i32 1
  store i32 %42, ptr %45, align 8, !tbaa !90
  %46 = load ptr, ptr %11, align 8, !tbaa !120
  %47 = getelementptr inbounds nuw %struct.H5D_earray_filt_elmt_t, ptr %46, i32 0, i32 2
  %48 = load i32, ptr %47, align 4, !tbaa !71
  %49 = load ptr, ptr %7, align 8, !tbaa !130
  %50 = getelementptr inbounds nuw %struct.H5D_earray_it_ud_t, ptr %49, i32 0, i32 1
  %51 = getelementptr inbounds nuw %struct.H5D_chunk_rec_t, ptr %50, i32 0, i32 2
  store i32 %48, ptr %51, align 4, !tbaa !91
  call void @llvm.lifetime.end.p0(i64 8, ptr %11) #8
  br label %58

52:                                               ; preds = %27
  %53 = load ptr, ptr %5, align 8, !tbaa !80
  %54 = load i64, ptr %53, align 8, !tbaa !10
  %55 = load ptr, ptr %7, align 8, !tbaa !130
  %56 = getelementptr inbounds nuw %struct.H5D_earray_it_ud_t, ptr %55, i32 0, i32 1
  %57 = getelementptr inbounds nuw %struct.H5D_chunk_rec_t, ptr %56, i32 0, i32 3
  store i64 %54, ptr %57, align 8, !tbaa !132
  br label %58

58:                                               ; preds = %52, %32
  %59 = load ptr, ptr %7, align 8, !tbaa !130
  %60 = getelementptr inbounds nuw %struct.H5D_earray_it_ud_t, ptr %59, i32 0, i32 1
  %61 = getelementptr inbounds nuw %struct.H5D_chunk_rec_t, ptr %60, i32 0, i32 3
  %62 = load i64, ptr %61, align 8, !tbaa !132
  %63 = icmp ne i64 %62, -1
  br i1 %63, label %64, label %83

64:                                               ; preds = %58
  %65 = load ptr, ptr %7, align 8, !tbaa !130
  %66 = getelementptr inbounds nuw %struct.H5D_earray_it_ud_t, ptr %65, i32 0, i32 3
  %67 = load ptr, ptr %66, align 8, !tbaa !92
  %68 = load ptr, ptr %7, align 8, !tbaa !130
  %69 = getelementptr inbounds nuw %struct.H5D_earray_it_ud_t, ptr %68, i32 0, i32 1
  %70 = load ptr, ptr %7, align 8, !tbaa !130
  %71 = getelementptr inbounds nuw %struct.H5D_earray_it_ud_t, ptr %70, i32 0, i32 4
  %72 = load ptr, ptr %71, align 8, !tbaa !93
  %73 = call i32 %67(ptr noundef %69, ptr noundef %72)
  store i32 %73, ptr %10, align 4, !tbaa !12
  %74 = icmp slt i32 %73, 0
  br i1 %74, label %75, label %82

75:                                               ; preds = %64
  br label %76

76:                                               ; preds = %75
  %77 = load i64, ptr @H5E_DATASET_g, align 8, !tbaa !10
  %78 = load i64, ptr @H5E_CALLBACK_g, align 8, !tbaa !10
  %79 = call i32 (ptr, ptr, i32, i64, i64, ptr, ...) @H5E_printf_stack(ptr noundef @.str.2, ptr noundef @__func__.H5D__earray_idx_iterate_cb, i32 noundef 1278, i64 noundef %77, i64 noundef %78, ptr noundef @.str.36)
  br label %80

80:                                               ; preds = %76
  br label %81

81:                                               ; preds = %80
  br label %82

82:                                               ; preds = %81, %64
  br label %83

83:                                               ; preds = %82, %58
  %84 = load ptr, ptr %7, align 8, !tbaa !130
  %85 = getelementptr inbounds nuw %struct.H5D_earray_it_ud_t, ptr %84, i32 0, i32 0
  %86 = getelementptr inbounds nuw %struct.H5D_chunk_common_ud_t, ptr %85, i32 0, i32 0
  %87 = load ptr, ptr %86, align 8, !tbaa !85
  %88 = getelementptr inbounds nuw %struct.H5O_layout_chunk_t, ptr %87, i32 0, i32 2
  %89 = load i32, ptr %88, align 8, !tbaa !72
  %90 = sub i32 %89, 1
  store i32 %90, ptr %8, align 4, !tbaa !12
  %91 = load i32, ptr %8, align 4, !tbaa !12
  %92 = sub i32 %91, 1
  store i32 %92, ptr %9, align 4, !tbaa !12
  br label %93

93:                                               ; preds = %132, %83
  %94 = load i32, ptr %9, align 4, !tbaa !12
  %95 = icmp sge i32 %94, 0
  br i1 %95, label %96, label %133

96:                                               ; preds = %93
  %97 = load ptr, ptr %7, align 8, !tbaa !130
  %98 = getelementptr inbounds nuw %struct.H5D_earray_it_ud_t, ptr %97, i32 0, i32 1
  %99 = getelementptr inbounds nuw %struct.H5D_chunk_rec_t, ptr %98, i32 0, i32 0
  %100 = load i32, ptr %9, align 4, !tbaa !12
  %101 = sext i32 %100 to i64
  %102 = getelementptr inbounds [33 x i64], ptr %99, i64 0, i64 %101
  %103 = load i64, ptr %102, align 8, !tbaa !10
  %104 = add i64 %103, 1
  store i64 %104, ptr %102, align 8, !tbaa !10
  %105 = load ptr, ptr %7, align 8, !tbaa !130
  %106 = getelementptr inbounds nuw %struct.H5D_earray_it_ud_t, ptr %105, i32 0, i32 1
  %107 = getelementptr inbounds nuw %struct.H5D_chunk_rec_t, ptr %106, i32 0, i32 0
  %108 = load i32, ptr %9, align 4, !tbaa !12
  %109 = sext i32 %108 to i64
  %110 = getelementptr inbounds [33 x i64], ptr %107, i64 0, i64 %109
  %111 = load i64, ptr %110, align 8, !tbaa !10
  %112 = load ptr, ptr %7, align 8, !tbaa !130
  %113 = getelementptr inbounds nuw %struct.H5D_earray_it_ud_t, ptr %112, i32 0, i32 0
  %114 = getelementptr inbounds nuw %struct.H5D_chunk_common_ud_t, ptr %113, i32 0, i32 0
  %115 = load ptr, ptr %114, align 8, !tbaa !85
  %116 = getelementptr inbounds nuw %struct.H5O_layout_chunk_t, ptr %115, i32 0, i32 9
  %117 = load i32, ptr %9, align 4, !tbaa !12
  %118 = sext i32 %117 to i64
  %119 = getelementptr inbounds [33 x i64], ptr %116, i64 0, i64 %118
  %120 = load i64, ptr %119, align 8, !tbaa !10
  %121 = icmp uge i64 %111, %120
  br i1 %121, label %122, label %131

122:                                              ; preds = %96
  %123 = load ptr, ptr %7, align 8, !tbaa !130
  %124 = getelementptr inbounds nuw %struct.H5D_earray_it_ud_t, ptr %123, i32 0, i32 1
  %125 = getelementptr inbounds nuw %struct.H5D_chunk_rec_t, ptr %124, i32 0, i32 0
  %126 = load i32, ptr %9, align 4, !tbaa !12
  %127 = sext i32 %126 to i64
  %128 = getelementptr inbounds [33 x i64], ptr %125, i64 0, i64 %127
  store i64 0, ptr %128, align 8, !tbaa !10
  %129 = load i32, ptr %9, align 4, !tbaa !12
  %130 = add nsw i32 %129, -1
  store i32 %130, ptr %9, align 4, !tbaa !12
  br label %132

131:                                              ; preds = %96
  br label %133

132:                                              ; preds = %122
  br label %93, !llvm.loop !133

133:                                              ; preds = %131, %93
  br label %134

134:                                              ; preds = %133, %19
  %135 = load i32, ptr %10, align 4, !tbaa !12
  call void @llvm.lifetime.end.p0(i64 4, ptr %10) #8
  call void @llvm.lifetime.end.p0(i64 4, ptr %9) #8
  call void @llvm.lifetime.end.p0(i64 4, ptr %8) #8
  call void @llvm.lifetime.end.p0(i64 8, ptr %7) #8
  ret i32 %135
}