; Function Attrs: nounwind uwtable
define internal i32 @H5D__earray_idx_iterate_cb(i64 %0, ptr noundef readonly captures(none) %1, ptr noundef %2) #0 {
  %4 = load i8, ptr @H5D_init_g, align 1, !tbaa !3, !range !7, !noundef !8
  %5 = trunc nuw i8 %4 to i1
  %6 = load i8, ptr @H5_libterm_g, align 1, !range !7
  %7 = trunc nuw i8 %6 to i1
  %8 = xor i1 %7, true
  %9 = select i1 %5, i1 true, i1 %8
  br i1 %9, label %10, label %.loopexit, !prof !9

10:                                               ; preds = %3
  %11 = getelementptr inbounds nuw i8, ptr %2, i64 304
  %12 = load i8, ptr %11, align 8, !tbaa !75, !range !7, !noundef !8
  %13 = trunc nuw i8 %12 to i1
  %14 = load i64, ptr %1, align 8, !tbaa !10
  br i1 %13, label %15, label %22

15:                                               ; preds = %10
  %16 = getelementptr inbounds nuw i8, ptr %1, i64 8
  %17 = load i32, ptr %16, align 8, !tbaa !56
  %18 = getelementptr inbounds nuw i8, ptr %2, i64 288
  store i32 %17, ptr %18, align 8, !tbaa !76
  %19 = getelementptr inbounds nuw i8, ptr %1, i64 12
  %20 = load i32, ptr %19, align 4, !tbaa !58
  %21 = getelementptr inbounds nuw i8, ptr %2, i64 292
  store i32 %20, ptr %21, align 4, !tbaa !97
  br label %22

22:                                               ; preds = %10, %15
  %23 = getelementptr inbounds nuw i8, ptr %2, i64 296
  store i64 %14, ptr %23, align 8, !tbaa !98
  %24 = getelementptr inbounds nuw i8, ptr %2, i64 24
  %.not = icmp eq i64 %14, -1
  br i1 %.not, label %36, label %25

25:                                               ; preds = %22
  %26 = getelementptr inbounds nuw i8, ptr %2, i64 312
  %27 = load ptr, ptr %26, align 8, !tbaa !77
  %28 = getelementptr inbounds nuw i8, ptr %2, i64 320
  %29 = load ptr, ptr %28, align 8, !tbaa !78
  %30 = tail call i32 %27(ptr noundef nonnull %24, ptr noundef %29) #11
  %31 = icmp slt i32 %30, 0
  br i1 %31, label %32, label %36

32:                                               ; preds = %25
  %33 = load i64, ptr @H5E_DATASET_g, align 8, !tbaa !10
  %34 = load i64, ptr @H5E_CALLBACK_g, align 8, !tbaa !10
  %35 = tail call i32 (ptr, ptr, i32, i64, i64, ptr, ...) @H5E_printf_stack(ptr noundef nonnull @.str.2, ptr noundef nonnull @__func__.H5D__earray_idx_iterate_cb, i32 noundef 1278, i64 noundef %33, i64 noundef %34, ptr noundef nonnull @.str.36) #11
  br label %36

36:                                               ; preds = %25, %32, %22
  %.1 = phi i32 [ %30, %32 ], [ %30, %25 ], [ 0, %22 ]
  %37 = load ptr, ptr %2, align 8, !tbaa !71
  %38 = getelementptr inbounds nuw i8, ptr %37, i64 8
  %39 = load i32, ptr %38, align 8, !tbaa !59
  %40 = add i32 %39, -2
  %41 = icmp sgt i32 %40, -1
  br i1 %41, label %.lr.ph, label %.loopexit

.lr.ph:                                           ; preds = %36
  %42 = getelementptr inbounds nuw i8, ptr %37, i64 432
  br label %43

43:                                               ; preds = %.lr.ph, %50
  %.031 = phi i32 [ %40, %.lr.ph ], [ %51, %50 ]
  %44 = zext nneg i32 %.031 to i64
  %45 = getelementptr inbounds nuw [33 x i64], ptr %24, i64 0, i64 %44
  %46 = load i64, ptr %45, align 8, !tbaa !10
  %47 = add i64 %46, 1
  store i64 %47, ptr %45, align 8, !tbaa !10
  %48 = getelementptr inbounds nuw [33 x i64], ptr %42, i64 0, i64 %44
  %49 = load i64, ptr %48, align 8, !tbaa !10
  %.not30 = icmp ult i64 %47, %49
  br i1 %.not30, label %.loopexit, label %50

50:                                               ; preds = %43
  store i64 0, ptr %45, align 8, !tbaa !10
  %51 = add nsw i32 %.031, -1
  %52 = icmp sgt i32 %.031, 0
  br i1 %52, label %43, label %.loopexit, !llvm.loop !99

.loopexit:                                        ; preds = %43, %50, %36, %3
  %.027 = phi i32 [ 0, %3 ], [ %.1, %36 ], [ %.1, %50 ], [ %.1, %43 ]
  ret i32 %.027
}